target datalayout = "e-m:e-p270:32:32-p271:32:32-p272:64:64-i64:64-i128:128-f80:128-n8:16:32:64-S128"
target triple = "x86_64-pc-linux-gnu"

%struct._lv_vector_path_t = type { i32, %struct._lv_array_t, %struct._lv_array_t }
%struct._lv_array_t = type { ptr, i32, i32, i32, i8 }

; Function Attrs: nounwind uwtable
define void @lv_vector_path_quad_to(ptr noundef %0, ptr noundef %1, ptr noundef %2) #0 {
  %4 = alloca ptr, align 8
  %5 = alloca ptr, align 8
  %6 = alloca ptr, align 8
  %7 = alloca i32, align 4
  store ptr %0, ptr %4, align 8, !tbaa !3
  store ptr %1, ptr %5, align 8, !tbaa !3
  store ptr %2, ptr %6, align 8, !tbaa !3
  %8 = load ptr, ptr %4, align 8, !tbaa !3
  %9 = getelementptr inbounds nuw %struct._lv_vector_path_t, ptr %8, i32 0, i32 1
  %10 = call zeroext i1 @lv_array_is_empty(ptr noundef %9)
  br i1 %10, label %11, label %12

11:                                               ; preds = %3
  br label %62

12:                                               ; preds = %3
  br label %13

13:                                               ; preds = %12
  %14 = load ptr, ptr %4, align 8, !tbaa !3
  %15 = getelementptr inbounds nuw %struct._lv_vector_path_t, ptr %14, i32 0, i32 1
  %16 = call i32 @lv_array_size(ptr noundef %15)
  %17 = add i32 %16, 2
  %18 = load ptr, ptr %4, align 8, !tbaa !3
  %19 = getelementptr inbounds nuw %struct._lv_vector_path_t, ptr %18, i32 0, i32 1
  %20 = call i32 @lv_array_capacity(ptr noundef %19)
  %21 = icmp ugt i32 %17, %20
  br i1 %21, label %22, label %31

22:                                               ; preds = %13
  %23 = load ptr, ptr %4, align 8, !tbaa !3
  %24 = getelementptr inbounds nuw %struct._lv_vector_path_t, ptr %23, i32 0, i32 1
  %25 = load ptr, ptr %4, align 8, !tbaa !3
  %26 = getelementptr inbounds nuw %struct._lv_vector_path_t, ptr %25, i32 0, i32 1
  %27 = getelementptr inbounds nuw %struct._lv_array_t, ptr %26, i32 0, i32 2
  %28 = load i32, ptr %27, align 4, !tbaa !22
  %29 = shl i32 %28, 1
  %30 = call zeroext i1 @lv_array_resize(ptr noundef %24, i32 noundef %29)
  br label %31

31:                                               ; preds = %22, %13
  %32 = load ptr, ptr %4, align 8, !tbaa !3
  %33 = getelementptr inbounds nuw %struct._lv_vector_path_t, ptr %32, i32 0, i32 2
  %34 = call i32 @lv_array_size(ptr noundef %33)
  %35 = add i32 %34, 2
  %36 = load ptr, ptr %4, align 8, !tbaa !3
  %37 = getelementptr inbounds nuw %struct._lv_vector_path_t, ptr %36, i32 0, i32 2
  %38 = call i32 @lv_array_capacity(ptr noundef %37)
  %39 = icmp ugt i32 %35, %38
  br i1 %39, label %40, label %49

40:                                               ; preds = %31
  %41 = load ptr, ptr %4, align 8, !tbaa !3
  %42 = getelementptr inbounds nuw %struct._lv_vector_path_t, ptr %41, i32 0, i32 2
  %43 = load ptr, ptr %4, align 8, !tbaa !3
  %44 = getelementptr inbounds nuw %struct._lv_vector_path_t, ptr %43, i32 0, i32 2
  %45 = getelementptr inbounds nuw %struct._lv_array_t, ptr %44, i32 0, i32 2
  %46 = load i32, ptr %45, align 4, !tbaa !23
  %47 = shl i32 %46, 1
  %48 = call zeroext i1 @lv_array_resize(ptr noundef %42, i32 noundef %47)
  br label %49

49:                                               ; preds = %40, %31
  br label %50

50:                                               ; preds = %49
  call void @llvm.lifetime.start.p0(i64 4, ptr %7) #7
  store i32 2, ptr %7, align 4, !tbaa !12
  %51 = load ptr, ptr %4, align 8, !tbaa !3
  %52 = getelementptr inbounds nuw %struct._lv_vector_path_t, ptr %51, i32 0, i32 1
  %53 = call i32 @lv_array_push_back(ptr noundef %52, ptr noundef %7)
  %54 = load ptr, ptr %4, align 8, !tbaa !3
  %55 = getelementptr inbounds nuw %struct._lv_vector_path_t, ptr %54, i32 0, i32 2
  %56 = load ptr, ptr %5, align 8, !tbaa !3
  %57 = call i32 @lv_array_push_back(ptr noundef %55, ptr noundef %56)
  %58 = load ptr, ptr %4, align 8, !tbaa !3
  %59 = getelementptr inbounds nuw %struct._lv_vector_path_t, ptr %58, i32 0, i32 2
  %60 = load ptr, ptr %6, align 8, !tbaa !3
  %61 = call i32 @lv_array_push_back(ptr noundef %59, ptr noundef %60)
  call void @llvm.lifetime.end.p0(i64 4, ptr %7) #7
  br label %62

62:                                               ; preds = %50, %11
  ret void
}