; Function Attrs: nounwind uwtable
define void @lv_vector_path_quad_to(ptr noundef %0, ptr noundef %1, ptr noundef %2) local_unnamed_addr #3 {
  %4 = alloca i32, align 4
  %5 = getelementptr inbounds nuw i8, ptr %0, i64 8
  %6 = tail call zeroext i1 @lv_array_is_empty(ptr noundef nonnull %5) #9
  br i1 %6, label %32, label %7

7:                                                ; preds = %3
  %8 = tail call i32 @lv_array_size(ptr noundef nonnull %5) #9
  %9 = add i32 %8, 2
  %10 = tail call i32 @lv_array_capacity(ptr noundef nonnull %5) #9
  %11 = icmp ugt i32 %9, %10
  br i1 %11, label %12, label %17

12:                                               ; preds = %7
  %13 = getelementptr inbounds nuw i8, ptr %0, i64 20
  %14 = load i32, ptr %13, align 4, !tbaa !18
  %15 = shl i32 %14, 1
  %16 = tail call zeroext i1 @lv_array_resize(ptr noundef nonnull %5, i32 noundef %15) #9
  br label %17

17:                                               ; preds = %12, %7
  %18 = getelementptr inbounds nuw i8, ptr %0, i64 32
  %19 = tail call i32 @lv_array_size(ptr noundef nonnull %18) #9
  %20 = add i32 %19, 2
  %21 = tail call i32 @lv_array_capacity(ptr noundef nonnull %18) #9
  %22 = icmp ugt i32 %20, %21
  br i1 %22, label %23, label %28

23:                                               ; preds = %17
  %24 = getelementptr inbounds nuw i8, ptr %0, i64 44
  %25 = load i32, ptr %24, align 4, !tbaa !19
  %26 = shl i32 %25, 1
  %27 = tail call zeroext i1 @lv_array_resize(ptr noundef nonnull %18, i32 noundef %26) #9
  br label %28

28:                                               ; preds = %17, %23
  call void @llvm.lifetime.start.p0(i64 4, ptr nonnull %4) #9
  store i32 2, ptr %4, align 4, !tbaa !20
  %29 = call i32 @lv_array_push_back(ptr noundef nonnull %5, ptr noundef nonnull %4) #9
  %30 = call i32 @lv_array_push_back(ptr noundef nonnull %18, ptr noundef %1) #9
  %31 = call i32 @lv_array_push_back(ptr noundef nonnull %18, ptr noundef %2) #9
  call void @llvm.lifetime.end.p0(i64 4, ptr nonnull %4) #9
  br label %32

32:                                               ; preds = %3, %28
  ret void
}